; Function Attrs: mustprogress nofree norecurse nosync nounwind willreturn memory(argmem: read) uwtable
define i64 @av_fifo_can_write(ptr noundef readonly captures(none) %0) local_unnamed_addr #4 {
  %2 = getelementptr inbounds nuw i8, ptr %0, i64 16
  %3 = load i64, ptr %2, align 8, !tbaa !12
  %4 = getelementptr inbounds nuw i8, ptr %0, i64 32
  %5 = load i64, ptr %4, align 8, !tbaa !17
  %6 = getelementptr inbounds nuw i8, ptr %0, i64 24
  %7 = load i64, ptr %6, align 8, !tbaa !18
  %.not.i = icmp ugt i64 %5, %7
  br i1 %.not.i, label %av_fifo_can_read.exit, label %8

8:                                                ; preds = %1
  %9 = getelementptr inbounds nuw i8, ptr %0, i64 40
  %10 = load i32, ptr %9, align 8, !tbaa !14
  %.not10.i = icmp eq i32 %10, 0
  %11 = select i1 %.not10.i, i64 %3, i64 0
  %spec.select = add i64 %5, %11
  br label %av_fifo_can_read.exit

av_fifo_can_read.exit:                            ; preds = %8, %1
  %.pn = phi i64 [ %5, %1 ], [ %spec.select, %8 ]
  %.0.i.neg = sub i64 %7, %.pn
  %12 = add i64 %.0.i.neg, %3
  ret i64 %12
}